target datalayout = "e-m:e-p270:32:32-p271:32:32-p272:64:64-i64:64-i128:128-f80:128-n8:16:32:64-S128"
target triple = "x86_64-pc-linux-gnu"

%struct.blake3_hasher = type { [8 x i32], %struct.blake3_chunk_state, i8, [1760 x i8] }
%struct.blake3_chunk_state = type { [8 x i32], i64, [64 x i8], i8, i8, i8 }

@IV = internal constant [8 x i32] [i32 1779033703, i32 -1150833019, i32 1013904242, i32 -1521486534, i32 1359893119, i32 -1694144372, i32 528734635, i32 1541459225], align 16

; Function Attrs: alwaysinline nounwind uwtable
define internal i32 @load32(ptr noundef %0) #1 {
  %2 = alloca ptr, align 8
  %3 = alloca ptr, align 8
  store ptr %0, ptr %2, align 8, !tbaa !4
  call void @llvm.lifetime.start.p0(i64 8, ptr %3) #8
  %4 = load ptr, ptr %2, align 8, !tbaa !4
  store ptr %4, ptr %3, align 8, !tbaa !15
  %5 = load ptr, ptr %3, align 8, !tbaa !15
  %6 = getelementptr inbounds i8, ptr %5, i64 0
  %7 = load i8, ptr %6, align 1, !tbaa !10
  %8 = zext i8 %7 to i32
  %9 = shl i32 %8, 0
  %10 = load ptr, ptr %3, align 8, !tbaa !15
  %11 = getelementptr inbounds i8, ptr %10, i64 1
  %12 = load i8, ptr %11, align 1, !tbaa !10
  %13 = zext i8 %12 to i32
  %14 = shl i32 %13, 8
  %15 = or i32 %9, %14
  %16 = load ptr, ptr %3, align 8, !tbaa !15
  %17 = getelementptr inbounds i8, ptr %16, i64 2
  %18 = load i8, ptr %17, align 1, !tbaa !10
  %19 = zext i8 %18 to i32
  %20 = shl i32 %19, 16
  %21 = or i32 %15, %20
  %22 = load ptr, ptr %3, align 8, !tbaa !15
  %23 = getelementptr inbounds i8, ptr %22, i64 3
  %24 = load i8, ptr %23, align 1, !tbaa !10
  %25 = zext i8 %24 to i32
  %26 = shl i32 %25, 24
  %27 = or i32 %21, %26
  call void @llvm.lifetime.end.p0(i64 8, ptr %3) #8
  ret i32 %27
}

; Function Attrs: alwaysinline nounwind uwtable
define internal void @chunk_state_init(ptr noundef %0, ptr noundef %1, i8 noundef zeroext %2) #1 {
  %4 = alloca ptr, align 8
  %5 = alloca ptr, align 8
  %6 = alloca i8, align 1
  store ptr %0, ptr %4, align 8, !tbaa !4
  store ptr %1, ptr %5, align 8, !tbaa !8
  store i8 %2, ptr %6, align 1, !tbaa !10
  %7 = load ptr, ptr %4, align 8, !tbaa !4
  %8 = getelementptr inbounds nuw %struct.blake3_chunk_state, ptr %7, i32 0, i32 0
  %9 = getelementptr inbounds [8 x i32], ptr %8, i64 0, i64 0
  %10 = load ptr, ptr %5, align 8, !tbaa !8
  call void @llvm.memcpy.p0.p0.i64(ptr align 8 %9, ptr align 4 %10, i64 32, i1 false)
  %11 = load ptr, ptr %4, align 8, !tbaa !4
  %12 = getelementptr inbounds nuw %struct.blake3_chunk_state, ptr %11, i32 0, i32 1
  store i64 0, ptr %12, align 8, !tbaa !24
  %13 = load ptr, ptr %4, align 8, !tbaa !4
  %14 = getelementptr inbounds nuw %struct.blake3_chunk_state, ptr %13, i32 0, i32 2
  %15 = getelementptr inbounds [64 x i8], ptr %14, i64 0, i64 0
  call void @llvm.memset.p0.i64(ptr align 8 %15, i8 0, i64 64, i1 false)
  %16 = load ptr, ptr %4, align 8, !tbaa !4
  %17 = getelementptr inbounds nuw %struct.blake3_chunk_state, ptr %16, i32 0, i32 3
  store i8 0, ptr %17, align 8, !tbaa !27
  %18 = load ptr, ptr %4, align 8, !tbaa !4
  %19 = getelementptr inbounds nuw %struct.blake3_chunk_state, ptr %18, i32 0, i32 4
  store i8 0, ptr %19, align 1, !tbaa !26
  %20 = load i8, ptr %6, align 1, !tbaa !10
  %21 = load ptr, ptr %4, align 8, !tbaa !4
  %22 = getelementptr inbounds nuw %struct.blake3_chunk_state, ptr %21, i32 0, i32 5
  store i8 %20, ptr %22, align 2, !tbaa !28
  ret void
}

; Function Attrs: alwaysinline nounwind uwtable
define internal void @load_key_words(ptr noundef %0, ptr noundef %1) #1 {
  %3 = alloca ptr, align 8
  %4 = alloca ptr, align 8
  store ptr %0, ptr %3, align 8, !tbaa !15
  store ptr %1, ptr %4, align 8, !tbaa !8
  %5 = load ptr, ptr %3, align 8, !tbaa !15
  %6 = getelementptr inbounds i8, ptr %5, i64 0
  %7 = call i32 @load32(ptr noundef %6)
  %8 = load ptr, ptr %4, align 8, !tbaa !8
  %9 = getelementptr inbounds i32, ptr %8, i64 0
  store i32 %7, ptr %9, align 4, !tbaa !17
  %10 = load ptr, ptr %3, align 8, !tbaa !15
  %11 = getelementptr inbounds i8, ptr %10, i64 4
  %12 = call i32 @load32(ptr noundef %11)
  %13 = load ptr, ptr %4, align 8, !tbaa !8
  %14 = getelementptr inbounds i32, ptr %13, i64 1
  store i32 %12, ptr %14, align 4, !tbaa !17
  %15 = load ptr, ptr %3, align 8, !tbaa !15
  %16 = getelementptr inbounds i8, ptr %15, i64 8
  %17 = call i32 @load32(ptr noundef %16)
  %18 = load ptr, ptr %4, align 8, !tbaa !8
  %19 = getelementptr inbounds i32, ptr %18, i64 2
  store i32 %17, ptr %19, align 4, !tbaa !17
  %20 = load ptr, ptr %3, align 8, !tbaa !15
  %21 = getelementptr inbounds i8, ptr %20, i64 12
  %22 = call i32 @load32(ptr noundef %21)
  %23 = load ptr, ptr %4, align 8, !tbaa !8
  %24 = getelementptr inbounds i32, ptr %23, i64 3
  store i32 %22, ptr %24, align 4, !tbaa !17
  %25 = load ptr, ptr %3, align 8, !tbaa !15
  %26 = getelementptr inbounds i8, ptr %25, i64 16
  %27 = call i32 @load32(ptr noundef %26)
  %28 = load ptr, ptr %4, align 8, !tbaa !8
  %29 = getelementptr inbounds i32, ptr %28, i64 4
  store i32 %27, ptr %29, align 4, !tbaa !17
  %30 = load ptr, ptr %3, align 8, !tbaa !15
  %31 = getelementptr inbounds i8, ptr %30, i64 20
  %32 = call i32 @load32(ptr noundef %31)
  %33 = load ptr, ptr %4, align 8, !tbaa !8
  %34 = getelementptr inbounds i32, ptr %33, i64 5
  store i32 %32, ptr %34, align 4, !tbaa !17
  %35 = load ptr, ptr %3, align 8, !tbaa !15
  %36 = getelementptr inbounds i8, ptr %35, i64 24
  %37 = call i32 @load32(ptr noundef %36)
  %38 = load ptr, ptr %4, align 8, !tbaa !8
  %39 = getelementptr inbounds i32, ptr %38, i64 6
  store i32 %37, ptr %39, align 4, !tbaa !17
  %40 = load ptr, ptr %3, align 8, !tbaa !15
  %41 = getelementptr inbounds i8, ptr %40, i64 28
  %42 = call i32 @load32(ptr noundef %41)
  %43 = load ptr, ptr %4, align 8, !tbaa !8
  %44 = getelementptr inbounds i32, ptr %43, i64 7
  store i32 %42, ptr %44, align 4, !tbaa !17
  ret void
}

; Function Attrs: nounwind uwtable
define dso_local void @blake3_hasher_finalize(ptr noundef %0, ptr noundef %1, i64 noundef %2) #0 {
  %4 = alloca ptr, align 8
  %5 = alloca ptr, align 8
  %6 = alloca i64, align 8
  store ptr %0, ptr %4, align 8, !tbaa !4
  store ptr %1, ptr %5, align 8, !tbaa !15
  store i64 %2, ptr %6, align 8, !tbaa !19
  %7 = load ptr, ptr %4, align 8, !tbaa !4
  %8 = load ptr, ptr %5, align 8, !tbaa !15
  %9 = load i64, ptr %6, align 8, !tbaa !19
  call void @blake3_hasher_finalize_seek(ptr noundef %7, i64 noundef 0, ptr noundef %8, i64 noundef %9)
  ret void
}

; Function Attrs: alwaysinline nounwind uwtable
define internal void @hasher_init_base(ptr noundef %0, ptr noundef %1, i8 noundef zeroext %2) #1 {
  %4 = alloca ptr, align 8
  %5 = alloca ptr, align 8
  %6 = alloca i8, align 1
  store ptr %0, ptr %4, align 8, !tbaa !4
  store ptr %1, ptr %5, align 8, !tbaa !8
  store i8 %2, ptr %6, align 1, !tbaa !10
  %7 = load ptr, ptr %4, align 8, !tbaa !4
  %8 = getelementptr inbounds nuw %struct.blake3_hasher, ptr %7, i32 0, i32 0
  %9 = getelementptr inbounds [8 x i32], ptr %8, i64 0, i64 0
  %10 = load ptr, ptr %5, align 8, !tbaa !8
  call void @llvm.memcpy.p0.p0.i64(ptr align 8 %9, ptr align 4 %10, i64 32, i1 false)
  %11 = load ptr, ptr %4, align 8, !tbaa !4
  %12 = getelementptr inbounds nuw %struct.blake3_hasher, ptr %11, i32 0, i32 1
  %13 = load ptr, ptr %5, align 8, !tbaa !8
  %14 = load i8, ptr %6, align 1, !tbaa !10
  call void @chunk_state_init(ptr noundef %12, ptr noundef %13, i8 noundef zeroext %14)
  %15 = load ptr, ptr %4, align 8, !tbaa !4
  %16 = getelementptr inbounds nuw %struct.blake3_hasher, ptr %15, i32 0, i32 2
  store i8 0, ptr %16, align 8, !tbaa !11
  ret void
}

; Function Attrs: nounwind uwtable
define dso_local void @blake3_hasher_init_derive_key_raw(ptr noundef %0, ptr noundef %1, i64 noundef %2) #0 {
  %4 = alloca ptr, align 8
  %5 = alloca ptr, align 8
  %6 = alloca i64, align 8
  %7 = alloca %struct.blake3_hasher, align 8
  %8 = alloca [32 x i8], align 16
  %9 = alloca [8 x i32], align 16
  store ptr %0, ptr %4, align 8, !tbaa !4
  store ptr %1, ptr %5, align 8, !tbaa !4
  store i64 %2, ptr %6, align 8, !tbaa !19
  call void @llvm.lifetime.start.p0(i64 1912, ptr %7) #8
  call void @hasher_init_base(ptr noundef %7, ptr noundef @IV, i8 noundef zeroext 32)
  %10 = load ptr, ptr %5, align 8, !tbaa !4
  %11 = load i64, ptr %6, align 8, !tbaa !19
  call void @blake3_hasher_update(ptr noundef %7, ptr noundef %10, i64 noundef %11)
  call void @llvm.lifetime.start.p0(i64 32, ptr %8) #8
  %12 = getelementptr inbounds [32 x i8], ptr %8, i64 0, i64 0
  call void @blake3_hasher_finalize(ptr noundef %7, ptr noundef %12, i64 noundef 32)
  call void @llvm.lifetime.start.p0(i64 32, ptr %9) #8
  %13 = getelementptr inbounds [32 x i8], ptr %8, i64 0, i64 0
  %14 = getelementptr inbounds [8 x i32], ptr %9, i64 0, i64 0
  call void @load_key_words(ptr noundef %13, ptr noundef %14)
  %15 = load ptr, ptr %4, align 8, !tbaa !4
  %16 = getelementptr inbounds [8 x i32], ptr %9, i64 0, i64 0
  call void @hasher_init_base(ptr noundef %15, ptr noundef %16, i8 noundef zeroext 64)
  call void @llvm.lifetime.end.p0(i64 32, ptr %9) #8
  call void @llvm.lifetime.end.p0(i64 32, ptr %8) #8
  call void @llvm.lifetime.end.p0(i64 1912, ptr %7) #8
  ret void
}